target datalayout = "e-m:e-p270:32:32-p271:32:32-p272:64:64-i64:64-i128:128-f80:128-n8:16:32:64-S128"
target triple = "x86_64-pc-linux-gnu"

%"class.doctest::String" = type { %union.anon }
%union.anon = type { %"struct.doctest::String::view", [8 x i8] }
%"struct.doctest::String::view" = type { ptr, i32, i32 }
%"struct.doctest::detail::MessageBuilder" = type <{ %"struct.doctest::MessageData", ptr, i8, [7 x i8] }>
%"struct.doctest::MessageData" = type { %"class.doctest::String", ptr, i32, i32 }

@.str.65 = private unnamed_addr constant [114 x i8] c"generated/home/dtcxzyw/WorkSpace/Projects/compilers/llvm-opt-benchmark/bench/luau/luau/tests/Conformance.test.cpp\00", align 1
@codegen = external global i8, align 1
@.str.205 = private unnamed_addr constant [90 x i8] c"Native code generation is not supported by the current configuration and will be disabled\00", align 1

; Function Attrs: mustprogress uwtable
define linkonce_odr dso_local noundef nonnull align 8 dereferenceable(49) ptr @_ZN7doctest6detail14MessageBuildermlIA90_cEERS1_RKT_(ptr noundef nonnull align 8 dereferenceable(49) %0, ptr noundef nonnull align 1 dereferenceable(90) %1) #4 comdat align 2 {
  %3 = alloca ptr, align 8
  %4 = alloca ptr, align 8
  store ptr %0, ptr %3, align 8
  store ptr %1, ptr %4, align 8
  %5 = load ptr, ptr %3, align 8
  %6 = load ptr, ptr %4, align 8
  %7 = call noundef nonnull align 8 dereferenceable(49) ptr @_ZN7doctest6detail14MessageBuildercmIA90_cEERS1_RKT_(ptr noundef nonnull align 8 dereferenceable(49) %5, ptr noundef nonnull align 1 dereferenceable(90) %6)
  ret ptr %7
}

; Function Attrs: mustprogress uwtable
define internal void @_ZL19DOCTEST_ANON_FUNC_7v() #4 personality ptr @__gxx_personality_v0 {
  %1 = alloca %"struct.doctest::detail::MessageBuilder", align 8
  %2 = alloca ptr, align 8
  %3 = alloca i32, align 4
  %4 = load i8, ptr @codegen, align 1
  %5 = trunc i8 %4 to i1
  br i1 %5, label %6, label %23

6:                                                ; preds = %0
  %7 = call noundef i32 @_Z22luau_codegen_supportedv()
  %8 = icmp ne i32 %7, 0
  br i1 %8, label %23, label %9

9:                                                ; preds = %6
  br label %10

10:                                               ; preds = %9
  call void @_ZN7doctest6detail14MessageBuilderC1EPKciNS_10assertType4EnumE(ptr noundef nonnull align 8 dereferenceable(49) %1, ptr noundef @.str.65, i32 noundef 591, i32 noundef 1)
  %11 = invoke noundef nonnull align 8 dereferenceable(49) ptr @_ZN7doctest6detail14MessageBuildermlIA90_cEERS1_RKT_(ptr noundef nonnull align 8 dereferenceable(49) %1, ptr noundef nonnull align 1 dereferenceable(90) @.str.205)
          to label %12 unwind label %16

12:                                               ; preds = %10
  %13 = invoke noundef zeroext i1 @_ZN7doctest6detail14MessageBuilder3logEv(ptr noundef nonnull align 8 dereferenceable(49) %1)
          to label %14 unwind label %16

14:                                               ; preds = %12
  br i1 %13, label %15, label %20

15:                                               ; preds = %14
  call void asm sideeffect "int $$3\0A", "~{dirflag},~{fpsr},~{flags}"() #16, !srcloc !5
  br label %20

16:                                               ; preds = %20, %12, %10
  %17 = landingpad { ptr, i32 }
          cleanup
  %18 = extractvalue { ptr, i32 } %17, 0
  store ptr %18, ptr %2, align 8
  %19 = extractvalue { ptr, i32 } %17, 1
  store i32 %19, ptr %3, align 4
  call void @_ZN7doctest6detail14MessageBuilderD1Ev(ptr noundef nonnull align 8 dereferenceable(49) %1) #16
  br label %24

20:                                               ; preds = %15, %14
  invoke void @_ZN7doctest6detail14MessageBuilder5reactEv(ptr noundef nonnull align 8 dereferenceable(49) %1)
          to label %21 unwind label %16

21:                                               ; preds = %20
  call void @_ZN7doctest6detail14MessageBuilderD1Ev(ptr noundef nonnull align 8 dereferenceable(49) %1) #16
  br label %22

22:                                               ; preds = %21
  br label %23

23:                                               ; preds = %22, %6, %0
  ret void

24:                                               ; preds = %16
  %25 = load ptr, ptr %2, align 8
  %26 = load i32, ptr %3, align 4
  %27 = insertvalue { ptr, i32 } poison, ptr %25, 0
  %28 = insertvalue { ptr, i32 } %27, i32 %26, 1
  resume { ptr, i32 } %28
}