; Function Attrs: mustprogress uwtable
define internal void @_ZL19DOCTEST_ANON_FUNC_7v() #4 personality ptr @__gxx_personality_v0 {
  %1 = alloca %"struct.doctest::detail::MessageBuilder", align 8
  %2 = load i8, ptr @codegen, align 1
  %3 = trunc i8 %2 to i1
  br i1 %3, label %4, label %15

4:                                                ; preds = %0
  %5 = tail call noundef i32 @_Z22luau_codegen_supportedv()
  %.not = icmp eq i32 %5, 0
  br i1 %.not, label %6, label %15

6:                                                ; preds = %4
  call void @_ZN7doctest6detail14MessageBuilderC1EPKciNS_10assertType4EnumE(ptr noundef nonnull align 8 dereferenceable(49) %1, ptr noundef nonnull @.str.65, i32 noundef 591, i32 noundef 1)
  %7 = invoke noundef nonnull align 8 dereferenceable(49) ptr @_ZN7doctest6detail14MessageBuildercmIA90_cEERS1_RKT_(ptr noundef nonnull align 8 dereferenceable(49) %1, ptr noundef nonnull align 1 dereferenceable(90) @.str.205)
          to label %_ZN7doctest6detail14MessageBuildermlIA90_cEERS1_RKT_.exit unwind label %11

_ZN7doctest6detail14MessageBuildermlIA90_cEERS1_RKT_.exit: ; preds = %6
  %8 = invoke noundef zeroext i1 @_ZN7doctest6detail14MessageBuilder3logEv(ptr noundef nonnull align 8 dereferenceable(49) %1)
          to label %9 unwind label %11

9:                                                ; preds = %_ZN7doctest6detail14MessageBuildermlIA90_cEERS1_RKT_.exit
  br i1 %8, label %10, label %13

10:                                               ; preds = %9
  call void asm sideeffect "int $$3\0A", "~{dirflag},~{fpsr},~{flags}"() #35, !srcloc !5
  br label %13

11:                                               ; preds = %6, %13, %_ZN7doctest6detail14MessageBuildermlIA90_cEERS1_RKT_.exit
  %12 = landingpad { ptr, i32 }
          cleanup
  call void @_ZN7doctest6detail14MessageBuilderD1Ev(ptr noundef nonnull align 8 dereferenceable(49) %1) #35
  resume { ptr, i32 } %12

13:                                               ; preds = %10, %9
  invoke void @_ZN7doctest6detail14MessageBuilder5reactEv(ptr noundef nonnull align 8 dereferenceable(49) %1)
          to label %14 unwind label %11

14:                                               ; preds = %13
  call void @_ZN7doctest6detail14MessageBuilderD1Ev(ptr noundef nonnull align 8 dereferenceable(49) %1) #35
  br label %15

15:                                               ; preds = %14, %4, %0
  ret void
}